target datalayout = "e-m:e-p270:32:32-p271:32:32-p272:64:64-i64:64-i128:128-f80:128-n8:16:32:64-S128"
target triple = "x86_64-pc-linux-gnu"

%"class.std::__cxx11::basic_string" = type { %"struct.std::__cxx11::basic_string<char>::_Alloc_hider", i64, %union.anon }
%"struct.std::__cxx11::basic_string<char>::_Alloc_hider" = type { ptr }
%union.anon = type { i64, [8 x i8] }
%"class.std::basic_string_view" = type { i64, ptr }
%"class.std::shared_ptr" = type { %"class.std::__shared_ptr" }
%"class.std::__shared_ptr" = type { ptr, %"class.std::__shared_count" }
%"class.std::__shared_count" = type { ptr }
%"class.nix::AutoCloseFD" = type { i32 }

@_ZTIN3nix5ErrorE = linkonce_odr constant { ptr, ptr, ptr } { ptr getelementptr inbounds (ptr, ptr @_ZTVN10__cxxabiv120__si_class_type_infoE, i64 2), ptr @_ZTSN3nix5ErrorE, ptr @_ZTIN3nix9BaseErrorE }, comdat, align 8
@_ZTIN3nix8SysErrorE = linkonce_odr constant { ptr, ptr, ptr } { ptr getelementptr inbounds (ptr, ptr @_ZTVN10__cxxabiv120__si_class_type_infoE, i64 2), ptr @_ZTSN3nix8SysErrorE, ptr @_ZTIN3nix11SystemErrorE }, comdat, align 8
@.str.14 = private unnamed_addr constant [19 x i8] c"opening file '%1%'\00", align 1
@.str.16 = private unnamed_addr constant [19 x i8] c"writing file '%1%'\00", align 1

; Function Attrs: mustprogress nounwind uwtable
define linkonce_odr void @_ZNSt14__shared_countILN9__gnu_cxx12_Lock_policyE2EEC2Ev(ptr noundef nonnull align 8 dereferenceable(8) %0) unnamed_addr #2 comdat align 2 {
  %2 = alloca ptr, align 8
  store ptr %0, ptr %2, align 8
  %3 = load ptr, ptr %2, align 8
  %4 = getelementptr inbounds %"class.std::__shared_count", ptr %3, i32 0, i32 0
  store ptr null, ptr %4, align 8
  ret void
}

; Function Attrs: mustprogress nounwind uwtable
define linkonce_odr noundef i64 @_ZNSt11char_traitsIcE6lengthEPKc(ptr noundef %0) #2 comdat align 2 {
  %2 = alloca ptr, align 8
  store ptr %0, ptr %2, align 8
  %3 = load ptr, ptr %2, align 8
  %4 = call i64 @strlen(ptr noundef %3) #1
  ret i64 %4
}

; Function Attrs: mustprogress nounwind uwtable
define linkonce_odr void @_ZNSt12__shared_ptrIN3nix3PosELN9__gnu_cxx12_Lock_policyE2EEC2Ev(ptr noundef nonnull align 8 dereferenceable(16) %0) unnamed_addr #2 comdat align 2 {
  %2 = alloca ptr, align 8
  store ptr %0, ptr %2, align 8
  %3 = load ptr, ptr %2, align 8
  %4 = getelementptr inbounds %"class.std::__shared_ptr", ptr %3, i32 0, i32 0
  store ptr null, ptr %4, align 8
  %5 = getelementptr inbounds %"class.std::__shared_ptr", ptr %3, i32 0, i32 1
  call void @_ZNSt14__shared_countILN9__gnu_cxx12_Lock_policyE2EEC2Ev(ptr noundef nonnull align 8 dereferenceable(8) %5) #1
  ret void
}

; Function Attrs: mustprogress nounwind uwtable
define linkonce_odr noundef ptr @_ZNKSt7__cxx1112basic_stringIcSt11char_traitsIcESaIcEE7_M_dataEv(ptr noundef nonnull align 8 dereferenceable(32) %0) #2 comdat align 2 {
  %2 = alloca ptr, align 8
  store ptr %0, ptr %2, align 8
  %3 = load ptr, ptr %2, align 8
  %4 = getelementptr inbounds %"class.std::__cxx11::basic_string", ptr %3, i32 0, i32 0
  %5 = getelementptr inbounds %"struct.std::__cxx11::basic_string<char>::_Alloc_hider", ptr %4, i32 0, i32 0
  %6 = load ptr, ptr %5, align 8
  ret ptr %6
}

; Function Attrs: mustprogress nounwind uwtable
define linkonce_odr void @_ZNSt17basic_string_viewIcSt11char_traitsIcEEC2EPKc(ptr noundef nonnull align 8 dereferenceable(16) %0, ptr noundef nonnull %1) unnamed_addr #2 comdat align 2 {
  %3 = alloca ptr, align 8
  %4 = alloca ptr, align 8
  store ptr %0, ptr %3, align 8
  store ptr %1, ptr %4, align 8
  %5 = load ptr, ptr %3, align 8
  %6 = getelementptr inbounds %"class.std::basic_string_view", ptr %5, i32 0, i32 0
  %7 = load ptr, ptr %4, align 8
  %8 = call noundef i64 @_ZNSt11char_traitsIcE6lengthEPKc(ptr noundef %7)
  store i64 %8, ptr %6, align 8
  %9 = getelementptr inbounds %"class.std::basic_string_view", ptr %5, i32 0, i32 1
  %10 = load ptr, ptr %4, align 8
  store ptr %10, ptr %9, align 8
  ret void
}

; Function Attrs: mustprogress nounwind uwtable
define linkonce_odr void @_ZNSt10shared_ptrIN3nix3PosEEC2Ev(ptr noundef nonnull align 8 dereferenceable(16) %0) unnamed_addr #2 comdat align 2 {
  %2 = alloca ptr, align 8
  store ptr %0, ptr %2, align 8
  %3 = load ptr, ptr %2, align 8
  call void @_ZNSt12__shared_ptrIN3nix3PosELN9__gnu_cxx12_Lock_policyE2EEC2Ev(ptr noundef nonnull align 8 dereferenceable(16) %3) #1
  ret void
}

; Function Attrs: mustprogress uwtable
define linkonce_odr void @_ZN3nix8SysErrorC2IJA19_cNSt7__cxx1112basic_stringIcSt11char_traitsIcESaIcEEEEEEDpRKT_(ptr noundef nonnull align 8 dereferenceable(380) %0, ptr noundef nonnull align 1 dereferenceable(19) %1, ptr noundef nonnull align 8 dereferenceable(32) %2) unnamed_addr #3 comdat align 2 {
  %4 = alloca ptr, align 8
  %5 = alloca ptr, align 8
  %6 = alloca ptr, align 8
  store ptr %0, ptr %4, align 8
  store ptr %1, ptr %5, align 8
  store ptr %2, ptr %6, align 8
  %7 = load ptr, ptr %4, align 8
  %8 = call ptr @__errno_location() #22
  %9 = load i32, ptr %8, align 4
  %10 = load ptr, ptr %5, align 8
  %11 = load ptr, ptr %6, align 8
  call void @_ZN3nix8SysErrorC2IJA19_cNSt7__cxx1112basic_stringIcSt11char_traitsIcESaIcEEEEEEiDpRKT_(ptr noundef nonnull align 8 dereferenceable(380) %7, i32 noundef %9, ptr noundef nonnull align 1 dereferenceable(19) %10, ptr noundef nonnull align 8 dereferenceable(32) %11)
  ret void
}

; Function Attrs: mustprogress nounwind uwtable
define linkonce_odr noundef ptr @_ZNKSt7__cxx1112basic_stringIcSt11char_traitsIcESaIcEE5c_strEv(ptr noundef nonnull align 8 dereferenceable(32) %0) #2 comdat align 2 {
  %2 = alloca ptr, align 8
  store ptr %0, ptr %2, align 8
  %3 = load ptr, ptr %2, align 8
  %4 = call noundef ptr @_ZNKSt7__cxx1112basic_stringIcSt11char_traitsIcESaIcEE7_M_dataEv(ptr noundef nonnull align 8 dereferenceable(32) %3)
  ret ptr %4
}

; Function Attrs: mustprogress uwtable
define void @_ZN3nix9writeFileERKNSt7__cxx1112basic_stringIcSt11char_traitsIcESaIcEEESt17basic_string_viewIcS3_Ejb(ptr noundef nonnull align 8 dereferenceable(32) %0, i64 %1, ptr %2, i32 noundef %3, i1 noundef zeroext %4) #3 personality ptr @__gxx_personality_v0 {
  %6 = alloca %"class.std::basic_string_view", align 8
  %7 = alloca ptr, align 8
  %8 = alloca i32, align 4
  %9 = alloca i8, align 1
  %10 = alloca %"class.nix::AutoCloseFD", align 4
  %11 = alloca ptr, align 8
  %12 = alloca i32, align 4
  %13 = alloca %"class.std::basic_string_view", align 8
  %14 = alloca ptr, align 8
  %15 = alloca %"class.std::shared_ptr", align 8
  %16 = alloca %"class.std::basic_string_view", align 8
  %17 = getelementptr inbounds { i64, ptr }, ptr %6, i32 0, i32 0
  store i64 %1, ptr %17, align 8
  %18 = getelementptr inbounds { i64, ptr }, ptr %6, i32 0, i32 1
  store ptr %2, ptr %18, align 8
  store ptr %0, ptr %7, align 8
  store i32 %3, ptr %8, align 4
  %19 = zext i1 %4 to i8
  store i8 %19, ptr %9, align 1
  %20 = load ptr, ptr %7, align 8
  %21 = call noundef ptr @_ZNKSt7__cxx1112basic_stringIcSt11char_traitsIcESaIcEE5c_strEv(ptr noundef nonnull align 8 dereferenceable(32) %20) #1
  %22 = load i32, ptr %8, align 4
  %23 = call i32 (ptr, i32, ...) @open(ptr noundef %21, i32 noundef 524865, i32 noundef %22)
  call void @_ZN3nix11AutoCloseFDC1Ei(ptr noundef nonnull align 4 dereferenceable(4) %10, i32 noundef %23)
  %24 = invoke noundef zeroext i1 @_ZNK3nix11AutoCloseFDcvbEv(ptr noundef nonnull align 4 dereferenceable(4) %10)
          to label %25 unwind label %30

25:                                               ; preds = %5
  br i1 %24, label %38, label %26

26:                                               ; preds = %25
  %27 = call ptr @__cxa_allocate_exception(i64 384) #1
  %28 = load ptr, ptr %7, align 8
  invoke void @_ZN3nix8SysErrorC2IJA19_cNSt7__cxx1112basic_stringIcSt11char_traitsIcESaIcEEEEEEDpRKT_(ptr noundef nonnull align 8 dereferenceable(380) %27, ptr noundef nonnull align 1 dereferenceable(19) @.str.14, ptr noundef nonnull align 8 dereferenceable(32) %28)
          to label %29 unwind label %34

29:                                               ; preds = %26
  invoke void @__cxa_throw(ptr %27, ptr @_ZTIN3nix8SysErrorE, ptr @_ZN3nix8SysErrorD2Ev) #20
          to label %96 unwind label %30

30:                                               ; preds = %83, %79, %77, %29, %5
  %31 = landingpad { ptr, i32 }
          cleanup
  %32 = extractvalue { ptr, i32 } %31, 0
  store ptr %32, ptr %11, align 8
  %33 = extractvalue { ptr, i32 } %31, 1
  store i32 %33, ptr %12, align 4
  br label %87

34:                                               ; preds = %26
  %35 = landingpad { ptr, i32 }
          cleanup
  %36 = extractvalue { ptr, i32 } %35, 0
  store ptr %36, ptr %11, align 8
  %37 = extractvalue { ptr, i32 } %35, 1
  store i32 %37, ptr %12, align 4
  call void @__cxa_free_exception(ptr %27) #1
  br label %87

38:                                               ; preds = %25
  %39 = invoke noundef i32 @_ZNK3nix11AutoCloseFD3getEv(ptr noundef nonnull align 4 dereferenceable(4) %10)
          to label %40 unwind label %46

40:                                               ; preds = %38
  call void @llvm.memcpy.p0.p0.i64(ptr align 8 %13, ptr align 8 %6, i64 16, i1 false)
  %41 = getelementptr inbounds { i64, ptr }, ptr %13, i32 0, i32 0
  %42 = load i64, ptr %41, align 8
  %43 = getelementptr inbounds { i64, ptr }, ptr %13, i32 0, i32 1
  %44 = load ptr, ptr %43, align 8
  invoke void @_ZN3nix9writeFullEiSt17basic_string_viewIcSt11char_traitsIcEEb(i32 noundef %39, i64 %42, ptr %44, i1 noundef zeroext true)
          to label %45 unwind label %46

45:                                               ; preds = %40
  br label %74

46:                                               ; preds = %40, %38
  %47 = landingpad { ptr, i32 }
          cleanup
          catch ptr @_ZTIN3nix5ErrorE
  %48 = extractvalue { ptr, i32 } %47, 0
  store ptr %48, ptr %11, align 8
  %49 = extractvalue { ptr, i32 } %47, 1
  store i32 %49, ptr %12, align 4
  br label %50

50:                                               ; preds = %46
  %51 = load i32, ptr %12, align 4
  %52 = call i32 @llvm.eh.typeid.for(ptr @_ZTIN3nix5ErrorE) #1
  %53 = icmp eq i32 %51, %52
  br i1 %53, label %54, label %87

54:                                               ; preds = %50
  %55 = load ptr, ptr %11, align 8
  %56 = call ptr @__cxa_begin_catch(ptr %55) #1
  store ptr %56, ptr %14, align 8
  %57 = load ptr, ptr %14, align 8
  call void @_ZNSt10shared_ptrIN3nix3PosEEC2Ev(ptr noundef nonnull align 8 dereferenceable(16) %15) #1
  call void @_ZNSt17basic_string_viewIcSt11char_traitsIcEEC2EPKc(ptr noundef nonnull align 8 dereferenceable(16) %16, ptr noundef @.str.16) #1
  %58 = load ptr, ptr %7, align 8
  %59 = getelementptr inbounds { i64, ptr }, ptr %16, i32 0, i32 0
  %60 = load i64, ptr %59, align 8
  %61 = getelementptr inbounds { i64, ptr }, ptr %16, i32 0, i32 1
  %62 = load ptr, ptr %61, align 8
  invoke void @_ZN3nix9BaseError8addTraceIJNSt7__cxx1112basic_stringIcSt11char_traitsIcESaIcEEEEEEvOSt10shared_ptrINS_3PosEESt17basic_string_viewIcS5_EDpRKT_(ptr noundef nonnull align 8 dereferenceable(376) %57, ptr noundef nonnull align 8 dereferenceable(16) %15, i64 %60, ptr %62, ptr noundef nonnull align 8 dereferenceable(32) %58)
          to label %63 unwind label %64

63:                                               ; preds = %54
  call void @_ZNSt10shared_ptrIN3nix3PosEED2Ev(ptr noundef nonnull align 8 dereferenceable(16) %15) #1
  invoke void @__cxa_rethrow() #20
          to label %96 unwind label %68

64:                                               ; preds = %54
  %65 = landingpad { ptr, i32 }
          cleanup
  %66 = extractvalue { ptr, i32 } %65, 0
  store ptr %66, ptr %11, align 8
  %67 = extractvalue { ptr, i32 } %65, 1
  store i32 %67, ptr %12, align 4
  call void @_ZNSt10shared_ptrIN3nix3PosEED2Ev(ptr noundef nonnull align 8 dereferenceable(16) %15) #1
  br label %72

68:                                               ; preds = %63
  %69 = landingpad { ptr, i32 }
          cleanup
  %70 = extractvalue { ptr, i32 } %69, 0
  store ptr %70, ptr %11, align 8
  %71 = extractvalue { ptr, i32 } %69, 1
  store i32 %71, ptr %12, align 4
  br label %72

72:                                               ; preds = %68, %64
  invoke void @__cxa_end_catch()
          to label %73 unwind label %93

73:                                               ; preds = %72
  br label %87

74:                                               ; preds = %45
  %75 = load i8, ptr %9, align 1
  %76 = trunc i8 %75 to i1
  br i1 %76, label %77, label %79

77:                                               ; preds = %74
  invoke void @_ZN3nix11AutoCloseFD5fsyncEv(ptr noundef nonnull align 4 dereferenceable(4) %10)
          to label %78 unwind label %30

78:                                               ; preds = %77
  br label %79

79:                                               ; preds = %78, %74
  invoke void @_ZN3nix11AutoCloseFD5closeEv(ptr noundef nonnull align 4 dereferenceable(4) %10)
          to label %80 unwind label %30

80:                                               ; preds = %79
  %81 = load i8, ptr %9, align 1
  %82 = trunc i8 %81 to i1
  br i1 %82, label %83, label %86

83:                                               ; preds = %80
  %84 = load ptr, ptr %7, align 8
  invoke void @_ZN3nix10syncParentERKNSt7__cxx1112basic_stringIcSt11char_traitsIcESaIcEEE(ptr noundef nonnull align 8 dereferenceable(32) %84)
          to label %85 unwind label %30

85:                                               ; preds = %83
  br label %86

86:                                               ; preds = %85, %80
  call void @_ZN3nix11AutoCloseFDD1Ev(ptr noundef nonnull align 4 dereferenceable(4) %10) #1
  ret void

87:                                               ; preds = %73, %50, %34, %30
  call void @_ZN3nix11AutoCloseFDD1Ev(ptr noundef nonnull align 4 dereferenceable(4) %10) #1
  br label %88

88:                                               ; preds = %87
  %89 = load ptr, ptr %11, align 8
  %90 = load i32, ptr %12, align 4
  %91 = insertvalue { ptr, i32 } poison, ptr %89, 0
  %92 = insertvalue { ptr, i32 } %91, i32 %90, 1
  resume { ptr, i32 } %92

93:                                               ; preds = %72
  %94 = landingpad { ptr, i32 }
          catch ptr null
  %95 = extractvalue { ptr, i32 } %94, 0
  call void @__clang_call_terminate(ptr %95) #21
  unreachable

96:                                               ; preds = %63, %29
  unreachable
}