; Function Attrs: mustprogress uwtable
define void @_ZN3nix9writeFileERKNSt7__cxx1112basic_stringIcSt11char_traitsIcESaIcEEESt17basic_string_viewIcS3_Ejb(ptr noundef nonnull align 8 dereferenceable(32) %0, i64 %1, ptr %2, i32 noundef %3, i1 noundef zeroext %4) local_unnamed_addr #2 personality ptr @__gxx_personality_v0 {
  %6 = alloca %"class.nix::AutoCloseFD", align 4
  %7 = alloca %"class.std::shared_ptr", align 8
  %8 = load ptr, ptr %0, align 8
  %9 = tail call i32 (ptr, i32, ...) @open(ptr noundef %8, i32 noundef 524865, i32 noundef %3)
  call void @_ZN3nix11AutoCloseFDC1Ei(ptr noundef nonnull align 4 dereferenceable(4) %6, i32 noundef %9)
  %10 = invoke noundef zeroext i1 @_ZNK3nix11AutoCloseFDcvbEv(ptr noundef nonnull align 4 dereferenceable(4) %6)
          to label %11 unwind label %16

11:                                               ; preds = %5
  br i1 %10, label %20, label %12

12:                                               ; preds = %11
  %13 = call ptr @__cxa_allocate_exception(i64 384) #29
  %14 = tail call ptr @__errno_location() #31
  %15 = load i32, ptr %14, align 4
  invoke void @_ZN3nix8SysErrorC2IJA19_cNSt7__cxx1112basic_stringIcSt11char_traitsIcESaIcEEEEEEiDpRKT_(ptr noundef nonnull align 8 dereferenceable(380) %13, i32 noundef %15, ptr noundef nonnull align 1 dereferenceable(19) @.str.14, ptr noundef nonnull align 8 dereferenceable(32) %0)
          to label %_ZN3nix8SysErrorC2IJA19_cNSt7__cxx1112basic_stringIcSt11char_traitsIcESaIcEEEEEEDpRKT_.exit unwind label %18

_ZN3nix8SysErrorC2IJA19_cNSt7__cxx1112basic_stringIcSt11char_traitsIcESaIcEEEEEEDpRKT_.exit: ; preds = %12
  invoke void @__cxa_throw(ptr nonnull %13, ptr nonnull @_ZTIN3nix8SysErrorE, ptr nonnull @_ZN3nix8SysErrorD2Ev) #32
          to label %47 unwind label %16

16:                                               ; preds = %41, %39, %38, %_ZN3nix8SysErrorC2IJA19_cNSt7__cxx1112basic_stringIcSt11char_traitsIcESaIcEEEEEEDpRKT_.exit, %5
  %17 = landingpad { ptr, i32 }
          cleanup
  br label %43

18:                                               ; preds = %12
  %19 = landingpad { ptr, i32 }
          cleanup
  call void @__cxa_free_exception(ptr %13) #29
  br label %43

20:                                               ; preds = %11
  %21 = invoke noundef i32 @_ZNK3nix11AutoCloseFD3getEv(ptr noundef nonnull align 4 dereferenceable(4) %6)
          to label %22 unwind label %23

22:                                               ; preds = %20
  invoke void @_ZN3nix9writeFullEiSt17basic_string_viewIcSt11char_traitsIcEEb(i32 noundef %21, i64 %1, ptr %2, i1 noundef zeroext true)
          to label %37 unwind label %23

23:                                               ; preds = %22, %20
  %24 = landingpad { ptr, i32 }
          cleanup
          catch ptr @_ZTIN3nix5ErrorE
  %25 = extractvalue { ptr, i32 } %24, 1
  %26 = call i32 @llvm.eh.typeid.for(ptr nonnull @_ZTIN3nix5ErrorE) #29
  %27 = icmp eq i32 %25, %26
  br i1 %27, label %28, label %43

28:                                               ; preds = %23
  %29 = extractvalue { ptr, i32 } %24, 0
  %30 = call ptr @__cxa_begin_catch(ptr %29) #29
  call void @llvm.memset.p0.i64(ptr noundef nonnull align 8 dereferenceable(16) %7, i8 0, i64 16, i1 false)
  invoke void @_ZN3nix9BaseError8addTraceIJNSt7__cxx1112basic_stringIcSt11char_traitsIcESaIcEEEEEEvOSt10shared_ptrINS_3PosEESt17basic_string_viewIcS5_EDpRKT_(ptr noundef nonnull align 8 dereferenceable(376) %30, ptr noundef nonnull align 8 dereferenceable(16) %7, i64 18, ptr nonnull @.str.16, ptr noundef nonnull align 8 dereferenceable(32) %0)
          to label %31 unwind label %32

31:                                               ; preds = %28
  call void @_ZNSt10shared_ptrIN3nix3PosEED2Ev(ptr noundef nonnull align 8 dereferenceable(16) %7) #29
  invoke void @__cxa_rethrow() #32
          to label %47 unwind label %34

32:                                               ; preds = %28
  %33 = landingpad { ptr, i32 }
          cleanup
  call void @_ZNSt10shared_ptrIN3nix3PosEED2Ev(ptr noundef nonnull align 8 dereferenceable(16) %7) #29
  br label %36

34:                                               ; preds = %31
  %35 = landingpad { ptr, i32 }
          cleanup
  br label %36

36:                                               ; preds = %34, %32
  %.pn = phi { ptr, i32 } [ %35, %34 ], [ %33, %32 ]
  invoke void @__cxa_end_catch()
          to label %43 unwind label %44

37:                                               ; preds = %22
  br i1 %4, label %38, label %39

38:                                               ; preds = %37
  invoke void @_ZN3nix11AutoCloseFD5fsyncEv(ptr noundef nonnull align 4 dereferenceable(4) %6)
          to label %39 unwind label %16

39:                                               ; preds = %38, %37
  invoke void @_ZN3nix11AutoCloseFD5closeEv(ptr noundef nonnull align 4 dereferenceable(4) %6)
          to label %40 unwind label %16

40:                                               ; preds = %39
  br i1 %4, label %41, label %42

41:                                               ; preds = %40
  invoke void @_ZN3nix10syncParentERKNSt7__cxx1112basic_stringIcSt11char_traitsIcESaIcEEE(ptr noundef nonnull align 8 dereferenceable(32) %0)
          to label %42 unwind label %16

42:                                               ; preds = %41, %40
  call void @_ZN3nix11AutoCloseFDD1Ev(ptr noundef nonnull align 4 dereferenceable(4) %6) #29
  ret void

43:                                               ; preds = %36, %23, %18, %16
  %.merged = phi { ptr, i32 } [ %17, %16 ], [ %.pn, %36 ], [ %24, %23 ], [ %19, %18 ]
  call void @_ZN3nix11AutoCloseFDD1Ev(ptr noundef nonnull align 4 dereferenceable(4) %6) #29
  resume { ptr, i32 } %.merged

44:                                               ; preds = %36
  %45 = landingpad { ptr, i32 }
          catch ptr null
  %46 = extractvalue { ptr, i32 } %45, 0
  call void @__clang_call_terminate(ptr %46) #34
  unreachable

47:                                               ; preds = %31, %_ZN3nix8SysErrorC2IJA19_cNSt7__cxx1112basic_stringIcSt11char_traitsIcESaIcEEEEEEDpRKT_.exit
  unreachable
}